target datalayout = "e-m:e-p270:32:32-p271:32:32-p272:64:64-i64:64-i128:128-f80:128-n8:16:32:64-S128"
target triple = "x86_64-pc-linux-gnu"

%"class.std::basic_string_view" = type { i64, ptr }
%"struct.toml::v3::impl::formatter_config" = type { i64, %"class.std::basic_string_view" }
%"class.toml::v3::impl::formatter" = type <{ ptr, ptr, %"struct.toml::v3::impl::formatter_config", i64, i64, ptr, i32, i8, [3 x i8] }>

; Function Attrs: mustprogress nounwind uwtable
define linkonce_odr noundef i64 @_ZNKSt17basic_string_viewIcSt11char_traitsIcEE6lengthEv(ptr noundef nonnull align 8 dereferenceable(16) %0) #2 comdat align 2 {
  %2 = alloca ptr, align 8
  store ptr %0, ptr %2, align 8, !tbaa !12
  %3 = load ptr, ptr %2, align 8
  %4 = getelementptr inbounds nuw %"class.std::basic_string_view", ptr %3, i32 0, i32 0
  %5 = load i64, ptr %4, align 8, !tbaa !16
  ret i64 %5
}

; Function Attrs: mustprogress nounwind uwtable
define linkonce_odr noundef ptr @_ZNKSt17basic_string_viewIcSt11char_traitsIcEE4dataEv(ptr noundef nonnull align 8 dereferenceable(16) %0) #2 comdat align 2 {
  %2 = alloca ptr, align 8
  store ptr %0, ptr %2, align 8, !tbaa !12
  %3 = load ptr, ptr %2, align 8
  %4 = getelementptr inbounds nuw %"class.std::basic_string_view", ptr %3, i32 0, i32 1
  %5 = load ptr, ptr %4, align 8, !tbaa !14
  ret ptr %5
}

; Function Attrs: mustprogress uwtable
define void @_ZN4toml2v34impl15print_to_streamERSoSt17basic_string_viewIcSt11char_traitsIcEE(ptr noundef nonnull align 8 dereferenceable(8) %0, i64 %1, ptr %2) #0 {
  %4 = alloca %"class.std::basic_string_view", align 8
  %5 = alloca ptr, align 8
  %6 = getelementptr inbounds nuw { i64, ptr }, ptr %4, i32 0, i32 0
  store i64 %1, ptr %6, align 8
  %7 = getelementptr inbounds nuw { i64, ptr }, ptr %4, i32 0, i32 1
  store ptr %2, ptr %7, align 8
  store ptr %0, ptr %5, align 8, !tbaa !3
  %8 = load ptr, ptr %5, align 8, !tbaa !3
  %9 = call noundef ptr @_ZNKSt17basic_string_viewIcSt11char_traitsIcEE4dataEv(ptr noundef nonnull align 8 dereferenceable(16) %4) #36
  %10 = call noundef i64 @_ZNKSt17basic_string_viewIcSt11char_traitsIcEE6lengthEv(ptr noundef nonnull align 8 dereferenceable(16) %4) #36
  %11 = call noundef nonnull align 8 dereferenceable(8) ptr @_ZNSo5writeEPKcl(ptr noundef nonnull align 8 dereferenceable(8) %8, ptr noundef %9, i64 noundef %10)
  ret void
}

; Function Attrs: mustprogress uwtable
define void @_ZN4toml2v34impl9formatter12print_indentEv(ptr noundef nonnull align 8 dereferenceable(69) %0) #0 align 2 {
  %2 = alloca ptr, align 8
  %3 = alloca i32, align 4
  %4 = alloca %"class.std::basic_string_view", align 8
  store ptr %0, ptr %2, align 8, !tbaa !374
  %5 = load ptr, ptr %2, align 8
  call void @llvm.lifetime.start.p0(i64 4, ptr %3) #36
  store i32 0, ptr %3, align 4, !tbaa !27
  br label %6

6:                                                ; preds = %22, %1
  %7 = load i32, ptr %3, align 4, !tbaa !27
  %8 = getelementptr inbounds nuw %"class.toml::v3::impl::formatter", ptr %5, i32 0, i32 6
  %9 = load i32, ptr %8, align 8, !tbaa !388
  %10 = icmp slt i32 %7, %9
  br i1 %10, label %12, label %11

11:                                               ; preds = %6
  call void @llvm.lifetime.end.p0(i64 4, ptr %3) #36
  br label %25

12:                                               ; preds = %6
  %13 = getelementptr inbounds nuw %"class.toml::v3::impl::formatter", ptr %5, i32 0, i32 5
  %14 = load ptr, ptr %13, align 8, !tbaa !390
  %15 = getelementptr inbounds nuw %"class.toml::v3::impl::formatter", ptr %5, i32 0, i32 2
  %16 = getelementptr inbounds nuw %"struct.toml::v3::impl::formatter_config", ptr %15, i32 0, i32 1
  call void @llvm.memcpy.p0.p0.i64(ptr align 8 %4, ptr align 8 %16, i64 16, i1 false), !tbaa.struct !150
  %17 = getelementptr inbounds nuw { i64, ptr }, ptr %4, i32 0, i32 0
  %18 = load i64, ptr %17, align 8
  %19 = getelementptr inbounds nuw { i64, ptr }, ptr %4, i32 0, i32 1
  %20 = load ptr, ptr %19, align 8
  call void @_ZN4toml2v34impl15print_to_streamERSoSt17basic_string_viewIcSt11char_traitsIcEE(ptr noundef nonnull align 8 dereferenceable(8) %14, i64 %18, ptr %20)
  %21 = getelementptr inbounds nuw %"class.toml::v3::impl::formatter", ptr %5, i32 0, i32 7
  store i8 0, ptr %21, align 4, !tbaa !389
  br label %22

22:                                               ; preds = %12
  %23 = load i32, ptr %3, align 4, !tbaa !27
  %24 = add nsw i32 %23, 1
  store i32 %24, ptr %3, align 4, !tbaa !27
  br label %6, !llvm.loop !391

25:                                               ; preds = %11
  ret void
}