; Function Attrs: mustprogress uwtable
define void @_ZN4toml2v34impl9formatter12print_indentEv(ptr noundef nonnull align 8 captures(none) dereferenceable(69) %0) local_unnamed_addr #0 align 2 {
  %2 = getelementptr inbounds nuw i8, ptr %0, i64 64
  %3 = load i32, ptr %2, align 8, !tbaa !119
  %4 = icmp sgt i32 %3, 0
  br i1 %4, label %.lr.ph, label %._crit_edge

.lr.ph:                                           ; preds = %1
  %5 = getelementptr inbounds nuw i8, ptr %0, i64 56
  %6 = getelementptr inbounds nuw i8, ptr %0, i64 24
  %.sroa.2.0..sroa_idx = getelementptr inbounds nuw i8, ptr %0, i64 32
  %7 = getelementptr inbounds nuw i8, ptr %0, i64 68
  br label %8

._crit_edge:                                      ; preds = %8, %1
  ret void

8:                                                ; preds = %.lr.ph, %8
  %.02 = phi i32 [ 0, %.lr.ph ], [ %11, %8 ]
  %9 = load ptr, ptr %5, align 8, !tbaa !121
  %.sroa.0.0.copyload = load i64, ptr %6, align 8, !tbaa !114
  %.sroa.2.0.copyload = load ptr, ptr %.sroa.2.0..sroa_idx, align 8, !tbaa !115
  %10 = tail call noundef nonnull align 8 dereferenceable(8) ptr @_ZNSo5writeEPKcl(ptr noundef nonnull align 8 dereferenceable(8) %9, ptr noundef %.sroa.2.0.copyload, i64 noundef %.sroa.0.0.copyload)
  store i8 0, ptr %7, align 4, !tbaa !120
  %11 = add nuw nsw i32 %.02, 1
  %12 = load i32, ptr %2, align 8, !tbaa !119
  %13 = icmp slt i32 %11, %12
  br i1 %13, label %8, label %._crit_edge, !llvm.loop !490
}